target datalayout = "e-m:e-p270:32:32-p271:32:32-p272:64:64-i64:64-i128:128-f80:128-n8:16:32:64-S128"
target triple = "x86_64-pc-linux-gnu"

%struct.cmsCIEXYZ = type { double, double, double }
%struct.cmsCIELab = type { double, double, double }

; Function Attrs: nounwind uwtable
define internal i32 @BlackPointAsDarkerColorant(ptr noundef %0, i32 noundef %1, ptr noundef %2, i32 noundef %3) #0 {
  %5 = alloca i32, align 4
  %6 = alloca ptr, align 8
  %7 = alloca i32, align 4
  %8 = alloca ptr, align 8
  %9 = alloca i32, align 4
  %10 = alloca ptr, align 8
  %11 = alloca ptr, align 8
  %12 = alloca i32, align 4
  %13 = alloca i32, align 4
  %14 = alloca i32, align 4
  %15 = alloca ptr, align 8
  %16 = alloca %struct.cmsCIELab, align 8
  %17 = alloca %struct.cmsCIEXYZ, align 8
  %18 = alloca ptr, align 8
  store ptr %0, ptr %6, align 8
  store i32 %1, ptr %7, align 4
  store ptr %2, ptr %8, align 8
  store i32 %3, ptr %9, align 4
  %19 = load ptr, ptr %6, align 8
  %20 = call ptr @cmsGetProfileContextID(ptr noundef %19)
  store ptr %20, ptr %18, align 8
  %21 = load ptr, ptr %6, align 8
  %22 = load i32, ptr %7, align 4
  %23 = call i32 @cmsIsIntentSupported(ptr noundef %21, i32 noundef %22, i32 noundef 0)
  %24 = icmp ne i32 %23, 0
  br i1 %24, label %32, label %25

25:                                               ; preds = %4
  %26 = load ptr, ptr %8, align 8
  %27 = getelementptr inbounds %struct.cmsCIEXYZ, ptr %26, i32 0, i32 2
  store double 0.000000e+00, ptr %27, align 8
  %28 = load ptr, ptr %8, align 8
  %29 = getelementptr inbounds %struct.cmsCIEXYZ, ptr %28, i32 0, i32 1
  store double 0.000000e+00, ptr %29, align 8
  %30 = load ptr, ptr %8, align 8
  %31 = getelementptr inbounds %struct.cmsCIEXYZ, ptr %30, i32 0, i32 0
  store double 0.000000e+00, ptr %31, align 8
  store i32 0, ptr %5, align 4
  br label %111

32:                                               ; preds = %4
  %33 = load ptr, ptr %6, align 8
  %34 = call i32 @cmsFormatterForColorspaceOfProfile(ptr noundef %33, i32 noundef 2, i32 noundef 0)
  store i32 %34, ptr %14, align 4
  %35 = load ptr, ptr %6, align 8
  %36 = call i32 @cmsGetColorSpace(ptr noundef %35)
  store i32 %36, ptr %12, align 4
  %37 = load i32, ptr %12, align 4
  %38 = call i32 @_cmsEndPointsBySpace(i32 noundef %37, ptr noundef null, ptr noundef %10, ptr noundef %13)
  %39 = icmp ne i32 %38, 0
  br i1 %39, label %47, label %40

40:                                               ; preds = %32
  %41 = load ptr, ptr %8, align 8
  %42 = getelementptr inbounds %struct.cmsCIEXYZ, ptr %41, i32 0, i32 2
  store double 0.000000e+00, ptr %42, align 8
  %43 = load ptr, ptr %8, align 8
  %44 = getelementptr inbounds %struct.cmsCIEXYZ, ptr %43, i32 0, i32 1
  store double 0.000000e+00, ptr %44, align 8
  %45 = load ptr, ptr %8, align 8
  %46 = getelementptr inbounds %struct.cmsCIEXYZ, ptr %45, i32 0, i32 0
  store double 0.000000e+00, ptr %46, align 8
  store i32 0, ptr %5, align 4
  br label %111

47:                                               ; preds = %32
  %48 = load i32, ptr %13, align 4
  %49 = load i32, ptr %14, align 4
  %50 = lshr i32 %49, 3
  %51 = and i32 %50, 15
  %52 = icmp ne i32 %48, %51
  br i1 %52, label %53, label %60

53:                                               ; preds = %47
  %54 = load ptr, ptr %8, align 8
  %55 = getelementptr inbounds %struct.cmsCIEXYZ, ptr %54, i32 0, i32 2
  store double 0.000000e+00, ptr %55, align 8
  %56 = load ptr, ptr %8, align 8
  %57 = getelementptr inbounds %struct.cmsCIEXYZ, ptr %56, i32 0, i32 1
  store double 0.000000e+00, ptr %57, align 8
  %58 = load ptr, ptr %8, align 8
  %59 = getelementptr inbounds %struct.cmsCIEXYZ, ptr %58, i32 0, i32 0
  store double 0.000000e+00, ptr %59, align 8
  store i32 0, ptr %5, align 4
  br label %111

60:                                               ; preds = %47
  %61 = load ptr, ptr %18, align 8
  %62 = call ptr @cmsCreateLab2ProfileTHR(ptr noundef %61, ptr noundef null)
  store ptr %62, ptr %15, align 8
  %63 = load ptr, ptr %15, align 8
  %64 = icmp eq ptr %63, null
  br i1 %64, label %65, label %72

65:                                               ; preds = %60
  %66 = load ptr, ptr %8, align 8
  %67 = getelementptr inbounds %struct.cmsCIEXYZ, ptr %66, i32 0, i32 2
  store double 0.000000e+00, ptr %67, align 8
  %68 = load ptr, ptr %8, align 8
  %69 = getelementptr inbounds %struct.cmsCIEXYZ, ptr %68, i32 0, i32 1
  store double 0.000000e+00, ptr %69, align 8
  %70 = load ptr, ptr %8, align 8
  %71 = getelementptr inbounds %struct.cmsCIEXYZ, ptr %70, i32 0, i32 0
  store double 0.000000e+00, ptr %71, align 8
  store i32 0, ptr %5, align 4
  br label %111

72:                                               ; preds = %60
  %73 = load ptr, ptr %18, align 8
  %74 = load ptr, ptr %6, align 8
  %75 = load i32, ptr %14, align 4
  %76 = load ptr, ptr %15, align 8
  %77 = load i32, ptr %7, align 4
  %78 = call ptr @cmsCreateTransformTHR(ptr noundef %73, ptr noundef %74, i32 noundef %75, ptr noundef %76, i32 noundef 4849688, i32 noundef %77, i32 noundef 320)
  store ptr %78, ptr %11, align 8
  %79 = load ptr, ptr %15, align 8
  %80 = call i32 @cmsCloseProfile(ptr noundef %79)
  %81 = load ptr, ptr %11, align 8
  %82 = icmp eq ptr %81, null
  br i1 %82, label %83, label %90

83:                                               ; preds = %72
  %84 = load ptr, ptr %8, align 8
  %85 = getelementptr inbounds %struct.cmsCIEXYZ, ptr %84, i32 0, i32 2
  store double 0.000000e+00, ptr %85, align 8
  %86 = load ptr, ptr %8, align 8
  %87 = getelementptr inbounds %struct.cmsCIEXYZ, ptr %86, i32 0, i32 1
  store double 0.000000e+00, ptr %87, align 8
  %88 = load ptr, ptr %8, align 8
  %89 = getelementptr inbounds %struct.cmsCIEXYZ, ptr %88, i32 0, i32 0
  store double 0.000000e+00, ptr %89, align 8
  store i32 0, ptr %5, align 4
  br label %111

90:                                               ; preds = %72
  %91 = load ptr, ptr %11, align 8
  %92 = load ptr, ptr %10, align 8
  call void @cmsDoTransform(ptr noundef %91, ptr noundef %92, ptr noundef %16, i32 noundef 1)
  %93 = getelementptr inbounds %struct.cmsCIELab, ptr %16, i32 0, i32 2
  store double 0.000000e+00, ptr %93, align 8
  %94 = getelementptr inbounds %struct.cmsCIELab, ptr %16, i32 0, i32 1
  store double 0.000000e+00, ptr %94, align 8
  %95 = getelementptr inbounds %struct.cmsCIELab, ptr %16, i32 0, i32 0
  %96 = load double, ptr %95, align 8
  %97 = fcmp ogt double %96, 5.000000e+01
  br i1 %97, label %102, label %98

98:                                               ; preds = %90
  %99 = getelementptr inbounds %struct.cmsCIELab, ptr %16, i32 0, i32 0
  %100 = load double, ptr %99, align 8
  %101 = fcmp olt double %100, 0.000000e+00
  br i1 %101, label %102, label %104

102:                                              ; preds = %98, %90
  %103 = getelementptr inbounds %struct.cmsCIELab, ptr %16, i32 0, i32 0
  store double 0.000000e+00, ptr %103, align 8
  br label %104

104:                                              ; preds = %102, %98
  %105 = load ptr, ptr %11, align 8
  call void @cmsDeleteTransform(ptr noundef %105)
  call void @cmsLab2XYZ(ptr noundef null, ptr noundef %17, ptr noundef %16)
  %106 = load ptr, ptr %8, align 8
  %107 = icmp ne ptr %106, null
  br i1 %107, label %108, label %110

108:                                              ; preds = %104
  %109 = load ptr, ptr %8, align 8
  call void @llvm.memcpy.p0.p0.i64(ptr align 8 %109, ptr align 8 %17, i64 24, i1 false)
  br label %110

110:                                              ; preds = %108, %104
  store i32 1, ptr %5, align 4
  br label %111

111:                                              ; preds = %110, %83, %65, %53, %40, %25
  %112 = load i32, ptr %5, align 4
  ret i32 %112
}