; Function Attrs: nounwind uwtable
define internal fastcc range(i32 0, 2) i32 @BlackPointAsDarkerColorant(ptr noundef %0, i32 noundef %1, ptr noundef writeonly %2) unnamed_addr #0 {
  %4 = alloca ptr, align 8
  %5 = alloca i32, align 4
  %6 = alloca %struct.cmsCIELab, align 8
  %7 = alloca %struct.cmsCIEXYZ, align 8
  %8 = tail call ptr @cmsGetProfileContextID(ptr noundef %0) #8
  %9 = tail call i32 @cmsIsIntentSupported(ptr noundef %0, i32 noundef %1, i32 noundef 0) #8
  %.not = icmp eq i32 %9, 0
  br i1 %.not, label %10, label %11

10:                                               ; preds = %3
  tail call void @llvm.memset.p0.i64(ptr noundef nonnull align 8 dereferenceable(24) %2, i8 0, i64 24, i1 false)
  br label %39

11:                                               ; preds = %3
  %12 = tail call i32 @cmsFormatterForColorspaceOfProfile(ptr noundef %0, i32 noundef 2, i32 noundef 0) #8
  %13 = tail call i32 @cmsGetColorSpace(ptr noundef %0) #8
  %14 = call i32 @_cmsEndPointsBySpace(i32 noundef %13, ptr noundef null, ptr noundef nonnull %4, ptr noundef nonnull %5) #8
  %.not40 = icmp eq i32 %14, 0
  br i1 %.not40, label %15, label %16

15:                                               ; preds = %11
  call void @llvm.memset.p0.i64(ptr noundef nonnull align 8 dereferenceable(24) %2, i8 0, i64 24, i1 false)
  br label %39

16:                                               ; preds = %11
  %17 = load i32, ptr %5, align 4
  %18 = lshr i32 %12, 3
  %19 = and i32 %18, 15
  %.not41 = icmp eq i32 %17, %19
  br i1 %.not41, label %21, label %20

20:                                               ; preds = %16
  call void @llvm.memset.p0.i64(ptr noundef nonnull align 8 dereferenceable(24) %2, i8 0, i64 24, i1 false)
  br label %39

21:                                               ; preds = %16
  %22 = call ptr @cmsCreateLab2ProfileTHR(ptr noundef %8, ptr noundef null) #8
  %23 = icmp eq ptr %22, null
  br i1 %23, label %24, label %25

24:                                               ; preds = %21
  call void @llvm.memset.p0.i64(ptr noundef nonnull align 8 dereferenceable(24) %2, i8 0, i64 24, i1 false)
  br label %39

25:                                               ; preds = %21
  %26 = call ptr @cmsCreateTransformTHR(ptr noundef %8, ptr noundef %0, i32 noundef %12, ptr noundef nonnull %22, i32 noundef 4849688, i32 noundef %1, i32 noundef 320) #8
  %27 = call i32 @cmsCloseProfile(ptr noundef nonnull %22) #8
  %28 = icmp eq ptr %26, null
  br i1 %28, label %29, label %30

29:                                               ; preds = %25
  call void @llvm.memset.p0.i64(ptr noundef nonnull align 8 dereferenceable(24) %2, i8 0, i64 24, i1 false)
  br label %39

30:                                               ; preds = %25
  %31 = load ptr, ptr %4, align 8
  call void @cmsDoTransform(ptr noundef nonnull %26, ptr noundef %31, ptr noundef nonnull %6, i32 noundef 1) #8
  %32 = getelementptr inbounds i8, ptr %6, i64 8
  call void @llvm.memset.p0.i64(ptr noundef nonnull align 8 dereferenceable(16) %32, i8 0, i64 16, i1 false)
  %33 = load double, ptr %6, align 8
  %34 = fcmp ogt double %33, 5.000000e+01
  %35 = fcmp olt double %33, 0.000000e+00
  %or.cond = or i1 %34, %35
  br i1 %or.cond, label %36, label %37

36:                                               ; preds = %30
  store double 0.000000e+00, ptr %6, align 8
  br label %37

37:                                               ; preds = %30, %36
  call void @cmsDeleteTransform(ptr noundef nonnull %26) #8
  call void @cmsLab2XYZ(ptr noundef null, ptr noundef nonnull %7, ptr noundef nonnull %6) #8
  %.not42 = icmp eq ptr %2, null
  br i1 %.not42, label %39, label %38

38:                                               ; preds = %37
  call void @llvm.memcpy.p0.p0.i64(ptr noundef nonnull align 8 dereferenceable(24) %2, ptr noundef nonnull align 8 dereferenceable(24) %7, i64 24, i1 false)
  br label %39

39:                                               ; preds = %37, %38, %29, %24, %20, %15, %10
  %.0 = phi i32 [ 0, %20 ], [ 0, %24 ], [ 0, %29 ], [ 0, %15 ], [ 0, %10 ], [ 1, %38 ], [ 1, %37 ]
  ret i32 %.0
}